target datalayout = "e-m:e-p270:32:32-p271:32:32-p272:64:64-i64:64-i128:128-f80:128-n8:16:32:64-S128"
target triple = "x86_64-pc-linux-gnu"

%struct.ObjectAddress = type { i32, i32, i32 }
%struct.FunctionCallInfoBaseData = type { ptr, ptr, ptr, i32, i8, i16, [0 x %struct.NullableDatum] }
%struct.NullableDatum = type { i64, i8 }
%struct.HeapTupleData = type { i32, %struct.ItemPointerData, i32, ptr }
%struct.ItemPointerData = type { %struct.BlockIdData, i16 }
%struct.BlockIdData = type { i16, i16 }

@.str.1 = private unnamed_addr constant [16 x i8] c"objectaddress.c\00", align 1
@.str.9 = private unnamed_addr constant [31 x i8] c"return type must be a row type\00", align 1
@__func__.pg_identify_object_as_address = private unnamed_addr constant [30 x i8] c"pg_identify_object_as_address\00", align 1

; Function Attrs: inlinehint nounwind uwtable
define internal i64 @HeapTupleGetDatum(ptr noundef %0) #4 {
  %2 = alloca ptr, align 8
  store ptr %0, ptr %2, align 8
  %3 = load ptr, ptr %2, align 8
  %4 = getelementptr inbounds nuw %struct.HeapTupleData, ptr %3, i32 0, i32 3
  %5 = load ptr, ptr %4, align 8
  %6 = call i64 @HeapTupleHeaderGetDatum(ptr noundef %5)
  ret i64 %6
}

; Function Attrs: inlinehint nounwind uwtable
define internal i64 @PointerGetDatum(ptr noundef %0) #4 {
  %2 = alloca ptr, align 8
  store ptr %0, ptr %2, align 8
  %3 = load ptr, ptr %2, align 8
  %4 = ptrtoint ptr %3 to i64
  ret i64 %4
}

; Function Attrs: inlinehint nounwind uwtable
define internal i32 @DatumGetInt32(i64 noundef %0) #4 {
  %2 = alloca i64, align 8
  store i64 %0, ptr %2, align 8
  %3 = load i64, ptr %2, align 8
  %4 = trunc i64 %3 to i32
  ret i32 %4
}

; Function Attrs: inlinehint nounwind uwtable
define internal i32 @DatumGetObjectId(i64 noundef %0) #4 {
  %2 = alloca i64, align 8
  store i64 %0, ptr %2, align 8
  %3 = load i64, ptr %2, align 8
  %4 = trunc i64 %3 to i32
  ret i32 %4
}

; Function Attrs: nounwind uwtable
define dso_local i64 @pg_identify_object_as_address(ptr noundef %0) #0 {
  %2 = alloca ptr, align 8
  %3 = alloca i32, align 4
  %4 = alloca i32, align 4
  %5 = alloca i32, align 4
  %6 = alloca %struct.ObjectAddress, align 4
  %7 = alloca ptr, align 8
  %8 = alloca ptr, align 8
  %9 = alloca ptr, align 8
  %10 = alloca [3 x i64], align 16
  %11 = alloca [3 x i8], align 1
  %12 = alloca ptr, align 8
  %13 = alloca ptr, align 8
  store ptr %0, ptr %2, align 8
  call void @llvm.lifetime.start.p0(i64 4, ptr %3) #10
  %14 = load ptr, ptr %2, align 8
  %15 = getelementptr inbounds nuw %struct.FunctionCallInfoBaseData, ptr %14, i32 0, i32 6
  %16 = getelementptr inbounds [0 x %struct.NullableDatum], ptr %15, i64 0, i64 0
  %17 = getelementptr inbounds nuw %struct.NullableDatum, ptr %16, i32 0, i32 0
  %18 = load i64, ptr %17, align 8
  %19 = call i32 @DatumGetObjectId(i64 noundef %18)
  store i32 %19, ptr %3, align 4
  call void @llvm.lifetime.start.p0(i64 4, ptr %4) #10
  %20 = load ptr, ptr %2, align 8
  %21 = getelementptr inbounds nuw %struct.FunctionCallInfoBaseData, ptr %20, i32 0, i32 6
  %22 = getelementptr inbounds [0 x %struct.NullableDatum], ptr %21, i64 0, i64 1
  %23 = getelementptr inbounds nuw %struct.NullableDatum, ptr %22, i32 0, i32 0
  %24 = load i64, ptr %23, align 8
  %25 = call i32 @DatumGetObjectId(i64 noundef %24)
  store i32 %25, ptr %4, align 4
  call void @llvm.lifetime.start.p0(i64 4, ptr %5) #10
  %26 = load ptr, ptr %2, align 8
  %27 = getelementptr inbounds nuw %struct.FunctionCallInfoBaseData, ptr %26, i32 0, i32 6
  %28 = getelementptr inbounds [0 x %struct.NullableDatum], ptr %27, i64 0, i64 2
  %29 = getelementptr inbounds nuw %struct.NullableDatum, ptr %28, i32 0, i32 0
  %30 = load i64, ptr %29, align 8
  %31 = call i32 @DatumGetInt32(i64 noundef %30)
  store i32 %31, ptr %5, align 4
  call void @llvm.lifetime.start.p0(i64 12, ptr %6) #10
  call void @llvm.lifetime.start.p0(i64 8, ptr %7) #10
  call void @llvm.lifetime.start.p0(i64 8, ptr %8) #10
  call void @llvm.lifetime.start.p0(i64 8, ptr %9) #10
  call void @llvm.lifetime.start.p0(i64 24, ptr %10) #10
  call void @llvm.lifetime.start.p0(i64 3, ptr %11) #10
  call void @llvm.lifetime.start.p0(i64 8, ptr %12) #10
  call void @llvm.lifetime.start.p0(i64 8, ptr %13) #10
  %32 = load i32, ptr %3, align 4
  %33 = getelementptr inbounds nuw %struct.ObjectAddress, ptr %6, i32 0, i32 0
  store i32 %32, ptr %33, align 4
  %34 = load i32, ptr %4, align 4
  %35 = getelementptr inbounds nuw %struct.ObjectAddress, ptr %6, i32 0, i32 1
  store i32 %34, ptr %35, align 4
  %36 = load i32, ptr %5, align 4
  %37 = getelementptr inbounds nuw %struct.ObjectAddress, ptr %6, i32 0, i32 2
  store i32 %36, ptr %37, align 4
  %38 = load ptr, ptr %2, align 8
  %39 = call i32 @get_call_result_type(ptr noundef %38, ptr noundef null, ptr noundef %12)
  %40 = icmp ne i32 %39, 1
  br i1 %40, label %41, label %52

41:                                               ; preds = %1
  br label %42

42:                                               ; preds = %41
  br i1 true, label %43, label %45

43:                                               ; preds = %42
  %44 = call zeroext i1 @errstart_cold(i32 noundef 21, ptr noundef null) #11
  br i1 %44, label %47, label %49

45:                                               ; preds = %42
  %46 = call zeroext i1 @errstart(i32 noundef 21, ptr noundef null)
  br i1 %46, label %47, label %49

47:                                               ; preds = %45, %43
  %48 = call i32 (ptr, ...) @errmsg_internal(ptr noundef @.str.9)
  call void @errfinish(ptr noundef @.str.1, i32 noundef 4374, ptr noundef @__func__.pg_identify_object_as_address)
  br label %49

49:                                               ; preds = %47, %45, %43
  unreachable

50:                                               ; No predecessors!
  br label %51

51:                                               ; preds = %50
  br label %52

52:                                               ; preds = %51, %1
  %53 = call ptr @getObjectTypeDescription(ptr noundef %6, i1 noundef zeroext true)
  %54 = call ptr @cstring_to_text(ptr noundef %53)
  %55 = call i64 @PointerGetDatum(ptr noundef %54)
  %56 = getelementptr inbounds [3 x i64], ptr %10, i64 0, i64 0
  store i64 %55, ptr %56, align 16
  %57 = getelementptr inbounds [3 x i8], ptr %11, i64 0, i64 0
  store i8 0, ptr %57, align 1
  %58 = call ptr @getObjectIdentityParts(ptr noundef %6, ptr noundef %8, ptr noundef %9, i1 noundef zeroext true)
  store ptr %58, ptr %7, align 8
  %59 = load ptr, ptr %7, align 8
  %60 = icmp eq ptr %59, null
  br i1 %60, label %61, label %64

61:                                               ; preds = %52
  %62 = getelementptr inbounds [3 x i8], ptr %11, i64 0, i64 1
  store i8 1, ptr %62, align 1
  %63 = getelementptr inbounds [3 x i8], ptr %11, i64 0, i64 2
  store i8 1, ptr %63, align 1
  br label %92

64:                                               ; preds = %52
  %65 = load ptr, ptr %7, align 8
  call void @pfree(ptr noundef %65)
  %66 = load ptr, ptr %8, align 8
  %67 = icmp ne ptr %66, null
  br i1 %67, label %68, label %73

68:                                               ; preds = %64
  %69 = load ptr, ptr %8, align 8
  %70 = call ptr @strlist_to_textarray(ptr noundef %69)
  %71 = call i64 @PointerGetDatum(ptr noundef %70)
  %72 = getelementptr inbounds [3 x i64], ptr %10, i64 0, i64 1
  store i64 %71, ptr %72, align 8
  br label %77

73:                                               ; preds = %64
  %74 = call ptr @construct_empty_array(i32 noundef 25)
  %75 = call i64 @PointerGetDatum(ptr noundef %74)
  %76 = getelementptr inbounds [3 x i64], ptr %10, i64 0, i64 1
  store i64 %75, ptr %76, align 8
  br label %77

77:                                               ; preds = %73, %68
  %78 = getelementptr inbounds [3 x i8], ptr %11, i64 0, i64 1
  store i8 0, ptr %78, align 1
  %79 = load ptr, ptr %9, align 8
  %80 = icmp ne ptr %79, null
  br i1 %80, label %81, label %86

81:                                               ; preds = %77
  %82 = load ptr, ptr %9, align 8
  %83 = call ptr @strlist_to_textarray(ptr noundef %82)
  %84 = call i64 @PointerGetDatum(ptr noundef %83)
  %85 = getelementptr inbounds [3 x i64], ptr %10, i64 0, i64 2
  store i64 %84, ptr %85, align 16
  br label %90

86:                                               ; preds = %77
  %87 = call ptr @construct_empty_array(i32 noundef 25)
  %88 = call i64 @PointerGetDatum(ptr noundef %87)
  %89 = getelementptr inbounds [3 x i64], ptr %10, i64 0, i64 2
  store i64 %88, ptr %89, align 16
  br label %90

90:                                               ; preds = %86, %81
  %91 = getelementptr inbounds [3 x i8], ptr %11, i64 0, i64 2
  store i8 0, ptr %91, align 1
  br label %92

92:                                               ; preds = %90, %61
  %93 = load ptr, ptr %12, align 8
  %94 = getelementptr inbounds [3 x i64], ptr %10, i64 0, i64 0
  %95 = getelementptr inbounds [3 x i8], ptr %11, i64 0, i64 0
  %96 = call ptr @heap_form_tuple(ptr noundef %93, ptr noundef %94, ptr noundef %95)
  store ptr %96, ptr %13, align 8
  %97 = load ptr, ptr %13, align 8
  %98 = call i64 @HeapTupleGetDatum(ptr noundef %97)
  call void @llvm.lifetime.end.p0(i64 8, ptr %13) #10
  call void @llvm.lifetime.end.p0(i64 8, ptr %12) #10
  call void @llvm.lifetime.end.p0(i64 3, ptr %11) #10
  call void @llvm.lifetime.end.p0(i64 24, ptr %10) #10
  call void @llvm.lifetime.end.p0(i64 8, ptr %9) #10
  call void @llvm.lifetime.end.p0(i64 8, ptr %8) #10
  call void @llvm.lifetime.end.p0(i64 8, ptr %7) #10
  call void @llvm.lifetime.end.p0(i64 12, ptr %6) #10
  call void @llvm.lifetime.end.p0(i64 4, ptr %5) #10
  call void @llvm.lifetime.end.p0(i64 4, ptr %4) #10
  call void @llvm.lifetime.end.p0(i64 4, ptr %3) #10
  ret i64 %98
}