; Function Attrs: nounwind uwtable
define dso_local i64 @pg_identify_object_as_address(ptr noundef %0) local_unnamed_addr #0 {
  %2 = alloca %struct.ObjectAddress, align 4
  %3 = alloca ptr, align 8
  %4 = alloca ptr, align 8
  %5 = alloca [3 x i64], align 16
  %6 = alloca [3 x i8], align 1
  %7 = alloca ptr, align 8
  %8 = getelementptr inbounds nuw i8, ptr %0, i64 32
  %9 = load i64, ptr %8, align 8
  %10 = trunc i64 %9 to i32
  %11 = getelementptr inbounds nuw i8, ptr %0, i64 48
  %12 = load i64, ptr %11, align 8
  %13 = trunc i64 %12 to i32
  %14 = getelementptr inbounds nuw i8, ptr %0, i64 64
  %15 = load i64, ptr %14, align 8
  %16 = trunc i64 %15 to i32
  call void @llvm.lifetime.start.p0(i64 12, ptr nonnull %2) #11
  call void @llvm.lifetime.start.p0(i64 8, ptr nonnull %3) #11
  call void @llvm.lifetime.start.p0(i64 8, ptr nonnull %4) #11
  call void @llvm.lifetime.start.p0(i64 24, ptr nonnull %5) #11
  call void @llvm.lifetime.start.p0(i64 3, ptr nonnull %6) #11
  call void @llvm.lifetime.start.p0(i64 8, ptr nonnull %7) #11
  store i32 %10, ptr %2, align 4
  %17 = getelementptr inbounds nuw i8, ptr %2, i64 4
  store i32 %13, ptr %17, align 4
  %18 = getelementptr inbounds nuw i8, ptr %2, i64 8
  store i32 %16, ptr %18, align 4
  %19 = call i32 @get_call_result_type(ptr noundef %0, ptr noundef null, ptr noundef nonnull %7) #11
  %.not = icmp eq i32 %19, 1
  br i1 %.not, label %23, label %20

20:                                               ; preds = %1
  %21 = call zeroext i1 @errstart_cold(i32 noundef 21, ptr noundef null) #12
  call void @llvm.assume(i1 %21)
  %22 = call i32 (ptr, ...) @errmsg_internal(ptr noundef nonnull @.str.9) #11
  call void @errfinish(ptr noundef nonnull @.str.1, i32 noundef 4374, ptr noundef nonnull @__func__.pg_identify_object_as_address) #11
  unreachable

23:                                               ; preds = %1
  %24 = call ptr @getObjectTypeDescription(ptr noundef nonnull %2, i1 noundef zeroext true)
  %25 = call ptr @cstring_to_text(ptr noundef %24) #11
  %26 = ptrtoint ptr %25 to i64
  store i64 %26, ptr %5, align 16
  store i8 0, ptr %6, align 1
  %27 = call ptr @getObjectIdentityParts(ptr noundef nonnull %2, ptr noundef nonnull %3, ptr noundef nonnull %4, i1 noundef zeroext true)
  %28 = icmp eq ptr %27, null
  br i1 %28, label %29, label %31

29:                                               ; preds = %23
  %30 = getelementptr inbounds nuw i8, ptr %6, i64 1
  store i8 1, ptr %30, align 1
  br label %47

31:                                               ; preds = %23
  call void @pfree(ptr noundef nonnull %27) #11
  %32 = load ptr, ptr %3, align 8
  %.not11 = icmp eq ptr %32, null
  br i1 %.not11, label %35, label %33

33:                                               ; preds = %31
  %34 = call ptr @strlist_to_textarray(ptr noundef nonnull %32)
  br label %37

35:                                               ; preds = %31
  %36 = call ptr @construct_empty_array(i32 noundef 25) #11
  br label %37

37:                                               ; preds = %35, %33
  %.sink.in = phi ptr [ %36, %35 ], [ %34, %33 ]
  %.sink = ptrtoint ptr %.sink.in to i64
  %38 = getelementptr inbounds nuw i8, ptr %5, i64 8
  store i64 %.sink, ptr %38, align 8
  %39 = getelementptr inbounds nuw i8, ptr %6, i64 1
  store i8 0, ptr %39, align 1
  %40 = load ptr, ptr %4, align 8
  %.not12 = icmp eq ptr %40, null
  br i1 %.not12, label %43, label %41

41:                                               ; preds = %37
  %42 = call ptr @strlist_to_textarray(ptr noundef nonnull %40)
  br label %45

43:                                               ; preds = %37
  %44 = call ptr @construct_empty_array(i32 noundef 25) #11
  br label %45

45:                                               ; preds = %43, %41
  %.sink13.in = phi ptr [ %44, %43 ], [ %42, %41 ]
  %.sink13 = ptrtoint ptr %.sink13.in to i64
  %46 = getelementptr inbounds nuw i8, ptr %5, i64 16
  store i64 %.sink13, ptr %46, align 16
  br label %47

47:                                               ; preds = %45, %29
  %.sink14 = phi i8 [ 0, %45 ], [ 1, %29 ]
  %48 = getelementptr inbounds nuw i8, ptr %6, i64 2
  store i8 %.sink14, ptr %48, align 1
  %49 = load ptr, ptr %7, align 8
  %50 = call ptr @heap_form_tuple(ptr noundef %49, ptr noundef nonnull %5, ptr noundef nonnull %6) #11
  %51 = getelementptr i8, ptr %50, i64 16
  %.val = load ptr, ptr %51, align 8
  %52 = call i64 @HeapTupleHeaderGetDatum(ptr noundef %.val) #11
  call void @llvm.lifetime.end.p0(i64 8, ptr nonnull %7) #11
  call void @llvm.lifetime.end.p0(i64 3, ptr nonnull %6) #11
  call void @llvm.lifetime.end.p0(i64 24, ptr nonnull %5) #11
  call void @llvm.lifetime.end.p0(i64 8, ptr nonnull %4) #11
  call void @llvm.lifetime.end.p0(i64 8, ptr nonnull %3) #11
  call void @llvm.lifetime.end.p0(i64 12, ptr nonnull %2) #11
  ret i64 %52
}